target datalayout = "e-m:e-p270:32:32-p271:32:32-p272:64:64-i64:64-i128:128-f80:128-n8:16:32:64-S128"
target triple = "x86_64-pc-linux-gnu"

%class.JvmtiTagMap = type <{ ptr, %class.Monitor, ptr, i8, i8, [6 x i8] }>
%class.Monitor = type { %class.Mutex }
%class.Mutex = type { ptr, %class.PlatformMonitor, ptr }
%class.PlatformMonitor = type { %class.PlatformMutex, %union.pthread_cond_t }
%class.PlatformMutex = type { %union.pthread_mutex_t }
%union.pthread_mutex_t = type { %struct.__pthread_mutex_s }
%struct.__pthread_mutex_s = type { i32, i32, i32, i32, i32, i16, i16, %struct.__pthread_internal_list }
%struct.__pthread_internal_list = type { ptr, ptr }
%union.pthread_cond_t = type { %struct.__pthread_cond_s }
%struct.__pthread_cond_s = type { %union.__atomic_wide_counter, %union.__atomic_wide_counter, [2 x i32], [2 x i32], i32, i32, [2 x i32] }
%union.__atomic_wide_counter = type { i64 }
%class.StackRefCollector = type { ptr, ptr, ptr, ptr, i64, i64, i8, i32, ptr }

@_ZN15CallbackInvoker15_heap_walk_typeE = hidden global i32 0, align 4
@g_assert_poison = external global ptr, align 8
@.str.19 = private unnamed_addr constant [40 x i8] c"src/hotspot/share/prims/jvmtiTagMap.cpp\00", align 1
@_ZN16java_lang_Thread11_tid_offsetE = external global i32, align 4

; Function Attrs: mustprogress nounwind uwtable
define linkonce_odr hidden noundef i64 @_Z13cast_from_oopIlET_P7oopDesc(ptr noundef %0) #1 comdat {
  %2 = alloca ptr, align 8
  store ptr %0, ptr %2, align 8
  %3 = load ptr, ptr %2, align 8
  %4 = ptrtoint ptr %3 to i64
  ret i64 %4
}

; Function Attrs: mustprogress nounwind uwtable
define linkonce_odr hidden noundef ptr @_ZNK7oopDesc6as_oopEv(ptr noundef nonnull align 8 dereferenceable(16) %0) #1 comdat align 2 {
  %2 = alloca ptr, align 8
  store ptr %0, ptr %2, align 8
  %3 = load ptr, ptr %2, align 8
  ret ptr %3
}

; Function Attrs: mustprogress nounwind uwtable
define linkonce_odr hidden noundef ptr @_ZNK7oopDesc10field_addrIlEEPT_i(ptr noundef nonnull align 8 dereferenceable(16) %0, i32 noundef %1) #1 comdat align 2 {
  %3 = alloca ptr, align 8
  %4 = alloca i32, align 4
  store ptr %0, ptr %3, align 8
  store i32 %1, ptr %4, align 4
  %5 = load ptr, ptr %3, align 8
  %6 = call noundef ptr @_ZNK7oopDesc6as_oopEv(ptr noundef nonnull align 8 dereferenceable(16) %5)
  %7 = call noundef i64 @_Z13cast_from_oopIlET_P7oopDesc(ptr noundef %6)
  %8 = load i32, ptr %4, align 4
  %9 = sext i32 %8 to i64
  %10 = add nsw i64 %7, %9
  %11 = inttoptr i64 %10 to ptr
  ret ptr %11
}

; Function Attrs: mustprogress nounwind uwtable
define linkonce_odr hidden noundef i64 @_ZNK7oopDesc10long_fieldEi(ptr noundef nonnull align 8 dereferenceable(16) %0, i32 noundef %1) #1 comdat align 2 {
  %3 = alloca ptr, align 8
  %4 = alloca i32, align 4
  store ptr %0, ptr %3, align 8
  store i32 %1, ptr %4, align 4
  %5 = load ptr, ptr %3, align 8
  %6 = load i32, ptr %4, align 4
  %7 = call noundef ptr @_ZNK7oopDesc10field_addrIlEEPT_i(ptr noundef nonnull align 8 dereferenceable(16) %5, i32 noundef %6)
  %8 = load i64, ptr %7, align 8
  ret i64 %8
}

; Function Attrs: mustprogress nounwind uwtable
define linkonce_odr hidden noundef ptr @_ZN11JvmtiTagMap7hashmapEv(ptr noundef nonnull align 8 dereferenceable(122) %0) #1 comdat align 2 {
  %2 = alloca ptr, align 8
  store ptr %0, ptr %2, align 8
  %3 = load ptr, ptr %2, align 8
  %4 = getelementptr inbounds %class.JvmtiTagMap, ptr %3, i32 0, i32 2
  %5 = load ptr, ptr %4, align 8
  ret ptr %5
}

; Function Attrs: mustprogress nounwind uwtable
define internal noundef i32 @_ZL19toJvmtiHeapRootKind22jvmtiHeapReferenceKind(i32 noundef %0) #1 {
  %2 = alloca i32, align 4
  %3 = alloca i32, align 4
  store i32 %0, ptr %3, align 4
  %4 = load i32, ptr %3, align 4
  switch i32 %4, label %11 [
    i32 21, label %5
    i32 22, label %6
    i32 24, label %7
    i32 25, label %8
    i32 26, label %9
    i32 27, label %10
  ]

5:                                                ; preds = %1
  store i32 1, ptr %2, align 4
  br label %15

6:                                                ; preds = %1
  store i32 2, ptr %2, align 4
  br label %15

7:                                                ; preds = %1
  store i32 4, ptr %2, align 4
  br label %15

8:                                                ; preds = %1
  store i32 5, ptr %2, align 4
  br label %15

9:                                                ; preds = %1
  store i32 6, ptr %2, align 4
  br label %15

10:                                               ; preds = %1
  store i32 7, ptr %2, align 4
  br label %15

11:                                               ; preds = %1
  br label %12

12:                                               ; preds = %11
  %13 = load ptr, ptr @g_assert_poison, align 8
  store i8 88, ptr %13, align 1
  call void @_Z28report_should_not_reach_herePKci(ptr noundef @.str.19, i32 noundef 1355) #10
  unreachable

14:                                               ; No predecessors!
  store i32 7, ptr %2, align 4
  br label %15

15:                                               ; preds = %14, %10, %9, %8, %7, %6, %5
  %16 = load i32, ptr %2, align 4
  ret i32 %16
}

; Function Attrs: mustprogress nounwind uwtable
define linkonce_odr hidden noundef zeroext i1 @_ZN15CallbackInvoker18is_basic_heap_walkEv() #1 comdat align 2 {
  %1 = load i32, ptr @_ZN15CallbackInvoker15_heap_walk_typeE, align 4
  %2 = icmp eq i32 %1, 0
  ret i1 %2
}

; Function Attrs: mustprogress nounwind uwtable
define linkonce_odr hidden noundef i64 @_ZN16java_lang_Thread9thread_idEP7oopDesc(ptr noundef %0) #1 comdat align 2 {
  %2 = alloca ptr, align 8
  store ptr %0, ptr %2, align 8
  %3 = load ptr, ptr %2, align 8
  %4 = load i32, ptr @_ZN16java_lang_Thread11_tid_offsetE, align 4
  %5 = call noundef i64 @_ZNK7oopDesc10long_fieldEi(ptr noundef nonnull align 8 dereferenceable(16) %3, i32 noundef %4)
  ret i64 %5
}

; Function Attrs: mustprogress nounwind uwtable
define internal noundef i64 @_ZL7tag_forP11JvmtiTagMapP7oopDesc(ptr noundef %0, ptr noundef %1) #1 {
  %3 = alloca ptr, align 8
  %4 = alloca ptr, align 8
  store ptr %0, ptr %3, align 8
  store ptr %1, ptr %4, align 8
  %5 = load ptr, ptr %3, align 8
  %6 = call noundef ptr @_ZN11JvmtiTagMap7hashmapEv(ptr noundef nonnull align 8 dereferenceable(122) %5)
  %7 = load ptr, ptr %4, align 8
  %8 = call noundef i64 @_ZN16JvmtiTagMapTable4findEP7oopDesc(ptr noundef nonnull align 8 dereferenceable(24) %6, ptr noundef %7)
  ret i64 %8
}

; Function Attrs: mustprogress nounwind uwtable
define linkonce_odr hidden noundef zeroext i1 @_ZN15CallbackInvoker18report_simple_rootE22jvmtiHeapReferenceKindP7oopDesc(i32 noundef %0, ptr noundef %1) #1 comdat align 2 {
  %3 = alloca i1, align 1
  %4 = alloca i32, align 4
  %5 = alloca ptr, align 8
  %6 = alloca i32, align 4
  store i32 %0, ptr %4, align 4
  store ptr %1, ptr %5, align 8
  %7 = call noundef zeroext i1 @_ZN15CallbackInvoker18is_basic_heap_walkEv()
  br i1 %7, label %8, label %14

8:                                                ; preds = %2
  %9 = load i32, ptr %4, align 4
  %10 = call noundef i32 @_ZL19toJvmtiHeapRootKind22jvmtiHeapReferenceKind(i32 noundef %9)
  store i32 %10, ptr %6, align 4
  %11 = load i32, ptr %6, align 4
  %12 = load ptr, ptr %5, align 8
  %13 = call noundef zeroext i1 @_ZN15CallbackInvoker31invoke_basic_heap_root_callbackE17jvmtiHeapRootKindP7oopDesc(i32 noundef %11, ptr noundef %12)
  store i1 %13, ptr %3, align 1
  br label %18

14:                                               ; preds = %2
  %15 = load i32, ptr %4, align 4
  %16 = load ptr, ptr %5, align 8
  %17 = call noundef zeroext i1 @_ZN15CallbackInvoker34invoke_advanced_heap_root_callbackE22jvmtiHeapReferenceKindP7oopDesc(i32 noundef %15, ptr noundef %16)
  store i1 %17, ptr %3, align 1
  br label %18

18:                                               ; preds = %14, %8
  %19 = load i1, ptr %3, align 1
  ret i1 %19
}

; Function Attrs: mustprogress nounwind uwtable
define hidden noundef zeroext i1 @_ZN17StackRefCollector10set_threadEP7oopDesc(ptr noundef nonnull align 8 dereferenceable(64) %0, ptr noundef %1) #1 align 2 {
  %3 = alloca ptr, align 8
  %4 = alloca ptr, align 8
  store ptr %0, ptr %3, align 8
  store ptr %1, ptr %4, align 8
  %5 = load ptr, ptr %3, align 8
  %6 = load ptr, ptr %4, align 8
  %7 = getelementptr inbounds %class.StackRefCollector, ptr %5, i32 0, i32 3
  store ptr %6, ptr %7, align 8
  %8 = getelementptr inbounds %class.StackRefCollector, ptr %5, i32 0, i32 0
  %9 = load ptr, ptr %8, align 8
  %10 = getelementptr inbounds %class.StackRefCollector, ptr %5, i32 0, i32 3
  %11 = load ptr, ptr %10, align 8
  %12 = call noundef i64 @_ZL7tag_forP11JvmtiTagMapP7oopDesc(ptr noundef %9, ptr noundef %11)
  %13 = getelementptr inbounds %class.StackRefCollector, ptr %5, i32 0, i32 4
  store i64 %12, ptr %13, align 8
  %14 = getelementptr inbounds %class.StackRefCollector, ptr %5, i32 0, i32 3
  %15 = load ptr, ptr %14, align 8
  %16 = call noundef i64 @_ZN16java_lang_Thread9thread_idEP7oopDesc(ptr noundef %15)
  %17 = getelementptr inbounds %class.StackRefCollector, ptr %5, i32 0, i32 5
  store i64 %16, ptr %17, align 8
  %18 = getelementptr inbounds %class.StackRefCollector, ptr %5, i32 0, i32 6
  store i8 1, ptr %18, align 8
  %19 = getelementptr inbounds %class.StackRefCollector, ptr %5, i32 0, i32 7
  store i32 0, ptr %19, align 4
  %20 = getelementptr inbounds %class.StackRefCollector, ptr %5, i32 0, i32 8
  store ptr null, ptr %20, align 8
  ret i1 true
}

; Function Attrs: mustprogress nounwind uwtable
define hidden noundef zeroext i1 @_ZN17StackRefCollector10set_threadE22jvmtiHeapReferenceKindP7oopDesc(ptr noundef nonnull align 8 dereferenceable(64) %0, i32 noundef %1, ptr noundef %2) #1 align 2 {
  %4 = alloca ptr, align 8
  %5 = alloca i32, align 4
  %6 = alloca ptr, align 8
  store ptr %0, ptr %4, align 8
  store i32 %1, ptr %5, align 4
  store ptr %2, ptr %6, align 8
  %7 = load ptr, ptr %4, align 8
  %8 = load ptr, ptr %6, align 8
  %9 = call noundef zeroext i1 @_ZN17StackRefCollector10set_threadEP7oopDesc(ptr noundef nonnull align 8 dereferenceable(64) %7, ptr noundef %8)
  br i1 %9, label %10, label %15

10:                                               ; preds = %3
  %11 = load i32, ptr %5, align 4
  %12 = getelementptr inbounds %class.StackRefCollector, ptr %7, i32 0, i32 3
  %13 = load ptr, ptr %12, align 8
  %14 = call noundef zeroext i1 @_ZN15CallbackInvoker18report_simple_rootE22jvmtiHeapReferenceKindP7oopDesc(i32 noundef %11, ptr noundef %13)
  br label %15

15:                                               ; preds = %10, %3
  %16 = phi i1 [ false, %3 ], [ %14, %10 ]
  ret i1 %16
}