; Function Attrs: mustprogress nounwind uwtable
define hidden noundef zeroext i1 @_ZN17StackRefCollector10set_threadE22jvmtiHeapReferenceKindP7oopDesc(ptr nocapture noundef nonnull align 8 dereferenceable(64) %0, i32 noundef %1, ptr noundef %2) local_unnamed_addr #0 align 2 {
  %4 = getelementptr inbounds i8, ptr %0, i64 24
  store ptr %2, ptr %4, align 8
  %5 = load ptr, ptr %0, align 8
  %6 = getelementptr i8, ptr %5, i64 112
  %.val.i = load ptr, ptr %6, align 8
  %7 = tail call noundef i64 @_ZN16JvmtiTagMapTable4findEP7oopDesc(ptr noundef nonnull align 8 dereferenceable(24) %.val.i, ptr noundef %2) #14
  %8 = getelementptr inbounds i8, ptr %0, i64 32
  store i64 %7, ptr %8, align 8
  %9 = load ptr, ptr %4, align 8
  %10 = load i32, ptr @_ZN16java_lang_Thread11_tid_offsetE, align 4
  %11 = ptrtoint ptr %9 to i64
  %12 = sext i32 %10 to i64
  %13 = add nsw i64 %12, %11
  %14 = inttoptr i64 %13 to ptr
  %15 = load i64, ptr %14, align 8
  %16 = getelementptr inbounds i8, ptr %0, i64 40
  store i64 %15, ptr %16, align 8
  %17 = getelementptr inbounds i8, ptr %0, i64 48
  store i8 1, ptr %17, align 8
  %18 = getelementptr inbounds i8, ptr %0, i64 52
  store i32 0, ptr %18, align 4
  %19 = getelementptr inbounds i8, ptr %0, i64 56
  store ptr null, ptr %19, align 8
  %20 = load i32, ptr @_ZN15CallbackInvoker15_heap_walk_typeE, align 4
  %21 = icmp eq i32 %20, 0
  br i1 %21, label %22, label %28

22:                                               ; preds = %3
  %switch.tableidx = add i32 %1, -21
  %23 = icmp ult i32 %switch.tableidx, 7
  br i1 %23, label %switch.hole_check, label %24

24:                                               ; preds = %switch.hole_check, %22
  %25 = load ptr, ptr @g_assert_poison, align 8
  store i8 88, ptr %25, align 1
  tail call void @_Z28report_should_not_reach_herePKci(ptr noundef nonnull @.str.19, i32 noundef 1355) #15
  unreachable

switch.hole_check:                                ; preds = %22
  %switch.maskindex = trunc nuw i32 %switch.tableidx to i8
  %switch.shifted = lshr i8 123, %switch.maskindex
  %switch.lobit = trunc i8 %switch.shifted to i1
  br i1 %switch.lobit, label %switch.lookup, label %24

switch.lookup:                                    ; preds = %switch.hole_check
  %26 = zext nneg i32 %switch.tableidx to i64
  %switch.gep = getelementptr inbounds [7 x i32], ptr @switch.table._ZN18SimpleRootsClosure6do_oopEPP7oopDesc, i64 0, i64 %26
  %switch.load = load i32, ptr %switch.gep, align 4
  %27 = tail call noundef zeroext i1 @_ZN15CallbackInvoker31invoke_basic_heap_root_callbackE17jvmtiHeapRootKindP7oopDesc(i32 noundef %switch.load, ptr noundef %9)
  br label %_ZN15CallbackInvoker18report_simple_rootE22jvmtiHeapReferenceKindP7oopDesc.exit

28:                                               ; preds = %3
  %29 = tail call noundef zeroext i1 @_ZN15CallbackInvoker34invoke_advanced_heap_root_callbackE22jvmtiHeapReferenceKindP7oopDesc(i32 noundef %1, ptr noundef %9)
  br label %_ZN15CallbackInvoker18report_simple_rootE22jvmtiHeapReferenceKindP7oopDesc.exit

_ZN15CallbackInvoker18report_simple_rootE22jvmtiHeapReferenceKindP7oopDesc.exit: ; preds = %switch.lookup, %28
  %.0.i = phi i1 [ %27, %switch.lookup ], [ %29, %28 ]
  ret i1 %.0.i
}